target datalayout = "e-m:e-p270:32:32-p271:32:32-p272:64:64-i64:64-i128:128-f80:128-n8:16:32:64-S128"
target triple = "x86_64-pc-linux-gnu"

%struct.expert_field = type { i32, i32 }

@hf_ieee80211_wfa_ie_transition_disable_bitmap = internal global i32 0, align 4
@hf_ieee80211_wfa_ie_transition_disable_reserved = internal global i32 0, align 4
@ett_ieee80211_wfa_transition_disable_tree = internal global i32 0, align 4
@ei_ieee80211_bad_length = internal global %struct.expert_field zeroinitializer, align 4

; Function Attrs: null_pointer_is_valid sspstrong uwtable
define internal i32 @dissect_transition_disable_kde(ptr noundef %0, ptr noundef %1, ptr noundef %2, ptr noundef %3) #1 {
  %5 = alloca i32, align 4
  %6 = alloca ptr, align 8
  %7 = alloca ptr, align 8
  %8 = alloca ptr, align 8
  %9 = alloca ptr, align 8
  %10 = alloca i32, align 4
  %11 = alloca i32, align 4
  %12 = alloca i32, align 4
  store ptr %0, ptr %6, align 8
  store ptr %1, ptr %7, align 8
  store ptr %2, ptr %8, align 8
  store ptr %3, ptr %9, align 8
  call void @llvm.lifetime.start.p0(i64 4, ptr %10) #19
  %13 = load ptr, ptr %6, align 8
  %14 = call i32 @tvb_captured_length(ptr noundef %13)
  store i32 %14, ptr %10, align 4
  call void @llvm.lifetime.start.p0(i64 4, ptr %11) #19
  store i32 0, ptr %11, align 4
  %15 = load i32, ptr %10, align 4
  %16 = icmp slt i32 %15, 1
  br i1 %16, label %17, label %21

17:                                               ; preds = %4
  %18 = load ptr, ptr %7, align 8
  %19 = load ptr, ptr %8, align 8
  %20 = call ptr @expert_add_info(ptr noundef %18, ptr noundef %19, ptr noundef @ei_ieee80211_bad_length)
  store i32 0, ptr %5, align 4
  store i32 1, ptr %12, align 4
  br label %45

21:                                               ; preds = %4
  %22 = load ptr, ptr %8, align 8
  %23 = load ptr, ptr %6, align 8
  %24 = load i32, ptr %11, align 4
  %25 = load i32, ptr @hf_ieee80211_wfa_ie_transition_disable_bitmap, align 4
  %26 = load i32, ptr @ett_ieee80211_wfa_transition_disable_tree, align 4
  %27 = call ptr @proto_tree_add_bitmask_with_flags(ptr noundef %22, ptr noundef %23, i32 noundef %24, i32 noundef %25, i32 noundef %26, ptr noundef @dissect_transition_disable_kde.ieee80211_wfa_transition_disable_flags, i32 noundef -2147483648, i32 noundef 1)
  %28 = load i32, ptr %11, align 4
  %29 = add i32 %28, 1
  store i32 %29, ptr %11, align 4
  %30 = load i32, ptr %11, align 4
  %31 = load i32, ptr %10, align 4
  %32 = icmp slt i32 %30, %31
  br i1 %32, label %33, label %42

33:                                               ; preds = %21
  %34 = load ptr, ptr %8, align 8
  %35 = load i32, ptr @hf_ieee80211_wfa_ie_transition_disable_reserved, align 4
  %36 = load ptr, ptr %6, align 8
  %37 = load i32, ptr %11, align 4
  %38 = load i32, ptr %10, align 4
  %39 = load i32, ptr %11, align 4
  %40 = sub i32 %38, %39
  %41 = call ptr @proto_tree_add_item(ptr noundef %34, i32 noundef %35, ptr noundef %36, i32 noundef %37, i32 noundef %40, i32 noundef 0)
  br label %42

42:                                               ; preds = %33, %21
  %43 = load i32, ptr %10, align 4
  store i32 %43, ptr %11, align 4
  %44 = load i32, ptr %11, align 4
  store i32 %44, ptr %5, align 4
  store i32 1, ptr %12, align 4
  br label %45

45:                                               ; preds = %42, %17
  call void @llvm.lifetime.end.p0(i64 4, ptr %11) #19
  call void @llvm.lifetime.end.p0(i64 4, ptr %10) #19
  %46 = load i32, ptr %5, align 4
  ret i32 %46
}