; Function Attrs: null_pointer_is_valid sspstrong uwtable
define internal range(i32 0, -2147483648) i32 @dissect_transition_disable_kde(ptr noundef %0, ptr noundef %1, ptr noundef %2, ptr readnone captures(none) %3) #2 {
  %5 = tail call i32 @tvb_captured_length(ptr noundef %0)
  %6 = icmp slt i32 %5, 1
  br i1 %6, label %7, label %9

7:                                                ; preds = %4
  %8 = tail call ptr @expert_add_info(ptr noundef %1, ptr noundef %2, ptr noundef nonnull @ei_ieee80211_bad_length)
  br label %17

9:                                                ; preds = %4
  %10 = load i32, ptr @hf_ieee80211_wfa_ie_transition_disable_bitmap, align 4
  %11 = load i32, ptr @ett_ieee80211_wfa_transition_disable_tree, align 4
  %12 = tail call ptr @proto_tree_add_bitmask_with_flags(ptr noundef %2, ptr noundef %0, i32 noundef 0, i32 noundef %10, i32 noundef %11, ptr noundef nonnull @dissect_transition_disable_kde.ieee80211_wfa_transition_disable_flags, i32 noundef -2147483648, i32 noundef 1)
  %.not = icmp eq i32 %5, 1
  br i1 %.not, label %17, label %13

13:                                               ; preds = %9
  %14 = load i32, ptr @hf_ieee80211_wfa_ie_transition_disable_reserved, align 4
  %15 = add nsw i32 %5, -1
  %16 = tail call ptr @proto_tree_add_item(ptr noundef %2, i32 noundef %14, ptr noundef %0, i32 noundef 1, i32 noundef %15, i32 noundef 0)
  br label %17

17:                                               ; preds = %9, %13, %7
  %.0 = phi i32 [ 0, %7 ], [ %5, %13 ], [ 1, %9 ]
  ret i32 %.0
}